; Function Attrs: mustprogress uwtable
define void @_ZN6Assimp11SpatialSort4FillEPK10aiVector3tIfEjjb(ptr noundef nonnull align 8 captures(none) dereferenceable(49) initializes((48, 49)) %0, ptr noundef readonly captures(none) %1, i32 noundef %2, i32 noundef %3, i1 noundef zeroext %4) local_unnamed_addr #0 align 2 personality ptr @__gxx_personality_v0 {
  %6 = getelementptr inbounds nuw i8, ptr %0, i64 24
  %7 = load ptr, ptr %6, align 8
  %8 = getelementptr inbounds nuw i8, ptr %0, i64 32
  %9 = load ptr, ptr %8, align 8
  %.not.i.i = icmp eq ptr %9, %7
  br i1 %.not.i.i, label %_ZNSt6vectorIN6Assimp11SpatialSort5EntryESaIS2_EE5clearEv.exit, label %10

10:                                               ; preds = %5
  store ptr %7, ptr %8, align 8
  br label %_ZNSt6vectorIN6Assimp11SpatialSort5EntryESaIS2_EE5clearEv.exit

_ZNSt6vectorIN6Assimp11SpatialSort5EntryESaIS2_EE5clearEv.exit: ; preds = %5, %10
  %11 = zext i1 %4 to i8
  %12 = getelementptr inbounds nuw i8, ptr %0, i64 48
  store i8 0, ptr %12, align 8
  tail call void @_ZN6Assimp11SpatialSort6AppendEPK10aiVector3tIfEjjb(ptr noundef nonnull align 8 dereferenceable(49) %0, ptr noundef %1, i32 noundef %2, i32 noundef %3, i1 noundef zeroext %4)
  store i8 %11, ptr %12, align 8
  ret void
}